; ModuleID = 'source-C-CXX/0/1573.c'
source_filename = "source-C-CXX/0/1573.c"
target datalayout = "e-m:e-p270:32:32-p271:32:32-p272:64:64-i64:64-f80:128-n8:16:32:64-S128"
target triple = "x86_64-pc-linux-gnu"

@.str = private unnamed_addr constant [3 x i8] c"%d\00", align 1
@.str.1 = private unnamed_addr constant [4 x i8] c"%d\0A\00", align 1

; Function Attrs: nofree nosync nounwind readnone sspstrong uwtable
define dso_local i32 @factor(i32 %0, i32 %1) local_unnamed_addr #0 {
  %3 = icmp slt i32 %0, %1
  br i1 %3, label %19, label %4

4:                                                ; preds = %2
  %5 = icmp slt i32 %1, %0
  br i1 %5, label %6, label %19

6:                                                ; preds = %4, %15
  %7 = phi i32 [ %16, %15 ], [ 1, %4 ]
  %8 = phi i32 [ %17, %15 ], [ %1, %4 ]
  %9 = srem i32 %0, %8
  %10 = sdiv i32 %0, %8
  %11 = icmp eq i32 %9, 0
  br i1 %11, label %12, label %15

12:                                               ; preds = %6
  %13 = tail call i32 @factor(i32 %10, i32 %8)
  %14 = add nsw i32 %13, %7
  br label %15

15:                                               ; preds = %6, %12
  %16 = phi i32 [ %14, %12 ], [ %7, %6 ]
  %17 = add i32 %8, 1
  %18 = icmp eq i32 %17, %0
  br i1 %18, label %19, label %6, !llvm.loop !5

19:                                               ; preds = %15, %4, %2
  %20 = phi i32 [ 0, %2 ], [ 1, %4 ], [ %16, %15 ]
  ret i32 %20
}

; Function Attrs: argmemonly mustprogress nofree nosync nounwind willreturn
declare void @llvm.lifetime.start.p0i8(i64 immarg, i8* nocapture) #1

; Function Attrs: argmemonly mustprogress nofree nosync nounwind willreturn
declare void @llvm.lifetime.end.p0i8(i64 immarg, i8* nocapture) #1

; Function Attrs: nofree nounwind sspstrong uwtable
define dso_local i32 @main() local_unnamed_addr #2 {
  %1 = alloca i32, align 4
  %2 = alloca [100 x i32], align 16
  %3 = bitcast i32* %1 to i8*
  call void @llvm.lifetime.start.p0i8(i64 4, i8* nonnull %3) #4
  %4 = bitcast [100 x i32]* %2 to i8*
  call void @llvm.lifetime.start.p0i8(i64 400, i8* nonnull %4) #4
  %5 = call i32 (i8*, ...) @__isoc99_scanf(i8* getelementptr inbounds ([3 x i8], [3 x i8]* @.str, i64 0, i64 0), i32* nonnull %1)
  %6 = load i32, i32* %1, align 4, !tbaa !7
  %7 = icmp sgt i32 %6, 0
  br i1 %7, label %10, label %34

8:                                                ; preds = %10
  %9 = icmp sgt i32 %17, 0
  br i1 %9, label %20, label %34

10:                                               ; preds = %0, %10
  %11 = phi i64 [ %16, %10 ], [ 0, %0 ]
  %12 = getelementptr inbounds [100 x i32], [100 x i32]* %2, i64 0, i64 %11
  %13 = call i32 (i8*, ...) @__isoc99_scanf(i8* getelementptr inbounds ([3 x i8], [3 x i8]* @.str, i64 0, i64 0), i32* nonnull %12)
  %14 = load i32, i32* %12, align 4, !tbaa !7
  %15 = call i32 @factor(i32 %14, i32 2)
  store i32 %15, i32* %12, align 4, !tbaa !7
  %16 = add nuw nsw i64 %11, 1
  %17 = load i32, i32* %1, align 4, !tbaa !7
  %18 = sext i32 %17 to i64
  %19 = icmp slt i64 %16, %18
  br i1 %19, label %10, label %8, !llvm.loop !11

20:                                               ; preds = %8, %20
  %21 = phi i64 [ %30, %20 ], [ 0, %8 ]
  %22 = phi i32 [ %31, %20 ], [ %17, %8 ]
  %23 = add nsw i32 %22, -1
  %24 = zext i32 %23 to i64
  %25 = icmp eq i64 %21, %24
  %26 = getelementptr inbounds [100 x i32], [100 x i32]* %2, i64 0, i64 %21
  %27 = load i32, i32* %26, align 4, !tbaa !7
  %28 = select i1 %25, i8* getelementptr inbounds ([3 x i8], [3 x i8]* @.str, i64 0, i64 0), i8* getelementptr inbounds ([4 x i8], [4 x i8]* @.str.1, i64 0, i64 0)
  %29 = call i32 (i8*, ...) @printf(i8* nonnull dereferenceable(1) %28, i32 %27)
  %30 = add nuw nsw i64 %21, 1
  %31 = load i32, i32* %1, align 4, !tbaa !7
  %32 = sext i32 %31 to i64
  %33 = icmp slt i64 %30, %32
  br i1 %33, label %20, label %34, !llvm.loop !12

34:                                               ; preds = %20, %0, %8
  call void @llvm.lifetime.end.p0i8(i64 400, i8* nonnull %4) #4
  call void @llvm.lifetime.end.p0i8(i64 4, i8* nonnull %3) #4
  ret i32 0
}

; Function Attrs: nofree nounwind
declare noundef i32 @__isoc99_scanf(i8* nocapture noundef readonly, ...) local_unnamed_addr #3

; Function Attrs: nofree nounwind
declare noundef i32 @printf(i8* nocapture noundef readonly, ...) local_unnamed_addr #3


!llvm.module.flags = !{!0, !1, !2, !3}
!llvm.ident = !{!4}

!0 = !{i32 1, !"wchar_size", i32 4}
!1 = !{i32 7, !"PIC Level", i32 2}
!2 = !{i32 7, !"PIE Level", i32 2}
!3 = !{i32 7, !"uwtable", i32 1}
!4 = !{!"clang version 13.0.0"}
!5 = distinct !{!5, !6}
!6 = !{!"llvm.loop.mustprogress"}
!7 = !{!8, !8, i64 0}
!8 = !{!"int", !9, i64 0}
!9 = !{!"omnipotent char", !10, i64 0}
!10 = !{!"Simple C/C++ TBAA"}
!11 = distinct !{!11, !6}
!12 = distinct !{!12, !6}
